
build/data:     file format elf64-littleriscv


Disassembly of section .text:

0000000052020000 <_start>:
    52020000:	52500e37          	lui	t3,0x52500
    52020004:	000e0e13          	mv	t3,t3
    52020008:	8172                	mv	sp,t3
    5202000a:	09e0006f          	j	520200a8 <main>
    5202000e:	50201f37          	lui	t5,0x50201
    52020012:	000f0f13          	mv	t5,t5
    52020016:	8f02                	jr	t5

0000000052020018 <loop>:
    52020018:	10500073          	wfi
    5202001c:	bff5                	j	52020018 <loop>

000000005202001e <call_jmptab>:
    5202001e:	715d                	addi	sp,sp,-80
    52020020:	e486                	sd	ra,72(sp)
    52020022:	e0a2                	sd	s0,64(sp)
    52020024:	0880                	addi	s0,sp,80
    52020026:	fca43c23          	sd	a0,-40(s0)
    5202002a:	fcb43823          	sd	a1,-48(s0)
    5202002e:	fcc43423          	sd	a2,-56(s0)
    52020032:	fcd43023          	sd	a3,-64(s0)
    52020036:	fae43c23          	sd	a4,-72(s0)
    5202003a:	faf43823          	sd	a5,-80(s0)
    5202003e:	fd843703          	ld	a4,-40(s0)
    52020042:	0a4007b7          	lui	a5,0xa400
    52020046:	1781                	addi	a5,a5,-32
    52020048:	97ba                	add	a5,a5,a4
    5202004a:	078e                	slli	a5,a5,0x3
    5202004c:	639c                	ld	a5,0(a5)
    5202004e:	fef43423          	sd	a5,-24(s0)
    52020052:	fe843783          	ld	a5,-24(s0)
    52020056:	fef43023          	sd	a5,-32(s0)
    5202005a:	fe043783          	ld	a5,-32(s0)
    5202005e:	fb043703          	ld	a4,-80(s0)
    52020062:	fb843683          	ld	a3,-72(s0)
    52020066:	fc043603          	ld	a2,-64(s0)
    5202006a:	fc843583          	ld	a1,-56(s0)
    5202006e:	fd043503          	ld	a0,-48(s0)
    52020072:	9782                	jalr	a5
    52020074:	87aa                	mv	a5,a0
    52020076:	853e                	mv	a0,a5
    52020078:	60a6                	ld	ra,72(sp)
    5202007a:	6406                	ld	s0,64(sp)
    5202007c:	6161                	addi	sp,sp,80
    5202007e:	8082                	ret

0000000052020080 <bios_putstr>:
    52020080:	1101                	addi	sp,sp,-32
    52020082:	ec06                	sd	ra,24(sp)
    52020084:	e822                	sd	s0,16(sp)
    52020086:	1000                	addi	s0,sp,32
    52020088:	fea43423          	sd	a0,-24(s0)
    5202008c:	fe843583          	ld	a1,-24(s0)
    52020090:	4781                	li	a5,0
    52020092:	4701                	li	a4,0
    52020094:	4681                	li	a3,0
    52020096:	4601                	li	a2,0
    52020098:	4501                	li	a0,0
    5202009a:	f85ff0ef          	jal	ra,5202001e <call_jmptab>
    5202009e:	0001                	nop
    520200a0:	60e2                	ld	ra,24(sp)
    520200a2:	6442                	ld	s0,16(sp)
    520200a4:	6105                	addi	sp,sp,32
    520200a6:	8082                	ret

00000000520200a8 <main>:
    520200a8:	1101                	addi	sp,sp,-32
    520200aa:	ec06                	sd	ra,24(sp)
    520200ac:	e822                	sd	s0,16(sp)
    520200ae:	1000                	addi	s0,sp,32
    520200b0:	00000517          	auipc	a0,0x0
    520200b4:	07850513          	addi	a0,a0,120 # 52020128 <main+0x80>
    520200b8:	fc9ff0ef          	jal	ra,52020080 <bios_putstr>
    520200bc:	40000793          	li	a5,1024
    520200c0:	fef42423          	sw	a5,-24(s0)
    520200c4:	fe042623          	sw	zero,-20(s0)
    520200c8:	a81d                	j	520200fe <main+0x56>
    520200ca:	00000717          	auipc	a4,0x0
    520200ce:	0ce70713          	addi	a4,a4,206 # 52020198 <data>
    520200d2:	fec42783          	lw	a5,-20(s0)
    520200d6:	078a                	slli	a5,a5,0x2
    520200d8:	97ba                	add	a5,a5,a4
    520200da:	4398                	lw	a4,0(a5)
    520200dc:	fec42783          	lw	a5,-20(s0)
    520200e0:	2781                	sext.w	a5,a5
    520200e2:	00e78963          	beq	a5,a4,520200f4 <main+0x4c>
    520200e6:	00000517          	auipc	a0,0x0
    520200ea:	06250513          	addi	a0,a0,98 # 52020148 <main+0xa0>
    520200ee:	f93ff0ef          	jal	ra,52020080 <bios_putstr>
    520200f2:	a001                	j	520200f2 <main+0x4a>
    520200f4:	fec42783          	lw	a5,-20(s0)
    520200f8:	2785                	addiw	a5,a5,1
    520200fa:	fef42623          	sw	a5,-20(s0)
    520200fe:	fec42703          	lw	a4,-20(s0)
    52020102:	fe842783          	lw	a5,-24(s0)
    52020106:	2701                	sext.w	a4,a4
    52020108:	2781                	sext.w	a5,a5
    5202010a:	fcf740e3          	blt	a4,a5,520200ca <main+0x22>
    5202010e:	00000517          	auipc	a0,0x0
    52020112:	06250513          	addi	a0,a0,98 # 52020170 <main+0xc8>
    52020116:	f6bff0ef          	jal	ra,52020080 <bios_putstr>
    5202011a:	4781                	li	a5,0
    5202011c:	853e                	mv	a0,a5
    5202011e:	60e2                	ld	ra,24(sp)
    52020120:	6442                	ld	s0,16(sp)
    52020122:	6105                	addi	sp,sp,32
    52020124:	8082                	ret
