
build/bss:     file format elf64-littleriscv


Disassembly of section .text:

0000000052000000 <_start>:
    52000000:	53500e37          	lui	t3,0x53500
    52000004:	000e0e13          	mv	t3,t3
    52000008:	8172                	mv	sp,t3
    5200000a:	82ae                	mv	t0,a1
    5200000c:	01028333          	add	t1,t0,a6
    52000010:	011283b3          	add	t2,t0,a7
    52000014:	0385                	addi	t2,t2,1
    52000016:	00735763          	bge	t1,t2,52000024 <bss_clean_done>

000000005200001a <bss_clean_loop>:
    5200001a:	00032023          	sw	zero,0(t1)
    5200001e:	0311                	addi	t1,t1,4
    52000020:	fe734de3          	blt	t1,t2,5200001a <bss_clean_loop>

0000000052000024 <bss_clean_done>:
    52000024:	0a00006f          	j	520000c4 <main>
    52000028:	50201f37          	lui	t5,0x50201
    5200002c:	000f0f13          	mv	t5,t5
    52000030:	8f02                	jr	t5

0000000052000032 <loop>:
    52000032:	10500073          	wfi
    52000036:	bff5                	j	52000032 <loop>
	...

000000005200003a <call_jmptab>:
    5200003a:	715d                	addi	sp,sp,-80
    5200003c:	e486                	sd	ra,72(sp)
    5200003e:	e0a2                	sd	s0,64(sp)
    52000040:	0880                	addi	s0,sp,80
    52000042:	fca43c23          	sd	a0,-40(s0)
    52000046:	fcb43823          	sd	a1,-48(s0)
    5200004a:	fcc43423          	sd	a2,-56(s0)
    5200004e:	fcd43023          	sd	a3,-64(s0)
    52000052:	fae43c23          	sd	a4,-72(s0)
    52000056:	faf43823          	sd	a5,-80(s0)
    5200005a:	fd843703          	ld	a4,-40(s0)
    5200005e:	0a4007b7          	lui	a5,0xa400
    52000062:	1781                	addi	a5,a5,-32
    52000064:	97ba                	add	a5,a5,a4
    52000066:	078e                	slli	a5,a5,0x3
    52000068:	639c                	ld	a5,0(a5)
    5200006a:	fef43423          	sd	a5,-24(s0)
    5200006e:	fe843783          	ld	a5,-24(s0)
    52000072:	fef43023          	sd	a5,-32(s0)
    52000076:	fe043783          	ld	a5,-32(s0)
    5200007a:	fb043703          	ld	a4,-80(s0)
    5200007e:	fb843683          	ld	a3,-72(s0)
    52000082:	fc043603          	ld	a2,-64(s0)
    52000086:	fc843583          	ld	a1,-56(s0)
    5200008a:	fd043503          	ld	a0,-48(s0)
    5200008e:	9782                	jalr	a5
    52000090:	87aa                	mv	a5,a0
    52000092:	853e                	mv	a0,a5
    52000094:	60a6                	ld	ra,72(sp)
    52000096:	6406                	ld	s0,64(sp)
    52000098:	6161                	addi	sp,sp,80
    5200009a:	8082                	ret

000000005200009c <bios_putstr>:
    5200009c:	1101                	addi	sp,sp,-32
    5200009e:	ec06                	sd	ra,24(sp)
    520000a0:	e822                	sd	s0,16(sp)
    520000a2:	1000                	addi	s0,sp,32
    520000a4:	fea43423          	sd	a0,-24(s0)
    520000a8:	fe843583          	ld	a1,-24(s0)
    520000ac:	4781                	li	a5,0
    520000ae:	4701                	li	a4,0
    520000b0:	4681                	li	a3,0
    520000b2:	4601                	li	a2,0
    520000b4:	4501                	li	a0,0
    520000b6:	f85ff0ef          	jal	ra,5200003a <call_jmptab>
    520000ba:	0001                	nop
    520000bc:	60e2                	ld	ra,24(sp)
    520000be:	6442                	ld	s0,16(sp)
    520000c0:	6105                	addi	sp,sp,32
    520000c2:	8082                	ret

00000000520000c4 <main>:
    520000c4:	1101                	addi	sp,sp,-32
    520000c6:	ec06                	sd	ra,24(sp)
    520000c8:	e822                	sd	s0,16(sp)
    520000ca:	1000                	addi	s0,sp,32
    520000cc:	4785                	li	a5,1
    520000ce:	fef42623          	sw	a5,-20(s0)
    520000d2:	fe042423          	sw	zero,-24(s0)
    520000d6:	a01d                	j	520000fc <main+0x38>
    520000d8:	00000717          	auipc	a4,0x0
    520000dc:	0a870713          	addi	a4,a4,168 # 52000180 <__DATA_BEGIN__>
    520000e0:	fe842783          	lw	a5,-24(s0)
    520000e4:	97ba                	add	a5,a5,a4
    520000e6:	0007c783          	lbu	a5,0(a5) # a400000 <TEXT_START-0x47c00000>
    520000ea:	c781                	beqz	a5,520000f2 <main+0x2e>
    520000ec:	fe042623          	sw	zero,-20(s0)
    520000f0:	a831                	j	5200010c <main+0x48>
    520000f2:	fe842783          	lw	a5,-24(s0)
    520000f6:	2785                	addiw	a5,a5,1
    520000f8:	fef42423          	sw	a5,-24(s0)
    520000fc:	fe842783          	lw	a5,-24(s0)
    52000100:	0007871b          	sext.w	a4,a5
    52000104:	03100793          	li	a5,49
    52000108:	fce7d8e3          	bge	a5,a4,520000d8 <main+0x14>
    5200010c:	fec42783          	lw	a5,-20(s0)
    52000110:	2781                	sext.w	a5,a5
    52000112:	cb81                	beqz	a5,52000122 <main+0x5e>
    52000114:	00000517          	auipc	a0,0x0
    52000118:	02c50513          	addi	a0,a0,44 # 52000140 <main+0x7c>
    5200011c:	f81ff0ef          	jal	ra,5200009c <bios_putstr>
    52000120:	a801                	j	52000130 <main+0x6c>
    52000122:	00000517          	auipc	a0,0x0
    52000126:	03e50513          	addi	a0,a0,62 # 52000160 <main+0x9c>
    5200012a:	f73ff0ef          	jal	ra,5200009c <bios_putstr>
    5200012e:	a001                	j	5200012e <main+0x6a>
    52000130:	4781                	li	a5,0
    52000132:	853e                	mv	a0,a5
    52000134:	60e2                	ld	ra,24(sp)
    52000136:	6442                	ld	s0,16(sp)
    52000138:	6105                	addi	sp,sp,32
    5200013a:	8082                	ret
