
build/main:     file format elf64-littleriscv


Disassembly of section .text:

0000000050201000 <_start>:
    50201000:	10401073          	csrw	sie,zero
    50201004:	14401073          	csrw	sip,zero
    50201008:	00001297          	auipc	t0,0x1
    5020100c:	c0828293          	addi	t0,t0,-1016 # 50201c10 <_edata>
    50201010:	00001317          	auipc	t1,0x1
    50201014:	f3830313          	addi	t1,t1,-200 # 50201f48 <__BSS_END__>
    50201018:	0305                	addi	t1,t1,1
    5020101a:	0062d763          	bge	t0,t1,50201028 <clean_done>

000000005020101e <clean_loop>:
    5020101e:	0002a023          	sw	zero,0(t0)
    50201022:	0291                	addi	t0,t0,4
    50201024:	fe62cde3          	blt	t0,t1,5020101e <clean_loop>

0000000050201028 <clean_done>:
    50201028:	50500137          	lui	sp,0x50500
    5020102c:	00010113          	mv	sp,sp
    50201030:	1ec0006f          	j	5020121c <main>

0000000050201034 <loop>:
    50201034:	10500073          	wfi
    50201038:	bff5                	j	50201034 <loop>

000000005020103a <call_jmptab>:
    5020103a:	715d                	addi	sp,sp,-80
    5020103c:	e486                	sd	ra,72(sp)
    5020103e:	e0a2                	sd	s0,64(sp)
    50201040:	0880                	addi	s0,sp,80
    50201042:	fca43c23          	sd	a0,-40(s0)
    50201046:	fcb43823          	sd	a1,-48(s0)
    5020104a:	fcc43423          	sd	a2,-56(s0)
    5020104e:	fcd43023          	sd	a3,-64(s0)
    50201052:	fae43c23          	sd	a4,-72(s0)
    50201056:	faf43823          	sd	a5,-80(s0)
    5020105a:	fd843703          	ld	a4,-40(s0)
    5020105e:	0a4007b7          	lui	a5,0xa400
    50201062:	1781                	addi	a5,a5,-32
    50201064:	97ba                	add	a5,a5,a4
    50201066:	078e                	slli	a5,a5,0x3
    50201068:	639c                	ld	a5,0(a5)
    5020106a:	fef43423          	sd	a5,-24(s0)
    5020106e:	fe843783          	ld	a5,-24(s0)
    50201072:	fef43023          	sd	a5,-32(s0)
    50201076:	fe043783          	ld	a5,-32(s0)
    5020107a:	fb043703          	ld	a4,-80(s0)
    5020107e:	fb843683          	ld	a3,-72(s0)
    50201082:	fc043603          	ld	a2,-64(s0)
    50201086:	fc843583          	ld	a1,-56(s0)
    5020108a:	fd043503          	ld	a0,-48(s0)
    5020108e:	9782                	jalr	a5
    50201090:	87aa                	mv	a5,a0
    50201092:	853e                	mv	a0,a5
    50201094:	60a6                	ld	ra,72(sp)
    50201096:	6406                	ld	s0,64(sp)
    50201098:	6161                	addi	sp,sp,80
    5020109a:	8082                	ret

000000005020109c <bios_putstr>:
    5020109c:	1101                	addi	sp,sp,-32
    5020109e:	ec06                	sd	ra,24(sp)
    502010a0:	e822                	sd	s0,16(sp)
    502010a2:	1000                	addi	s0,sp,32
    502010a4:	fea43423          	sd	a0,-24(s0)
    502010a8:	fe843583          	ld	a1,-24(s0)
    502010ac:	4781                	li	a5,0
    502010ae:	4701                	li	a4,0
    502010b0:	4681                	li	a3,0
    502010b2:	4601                	li	a2,0
    502010b4:	4501                	li	a0,0
    502010b6:	f85ff0ef          	jal	ra,5020103a <call_jmptab>
    502010ba:	0001                	nop
    502010bc:	60e2                	ld	ra,24(sp)
    502010be:	6442                	ld	s0,16(sp)
    502010c0:	6105                	addi	sp,sp,32
    502010c2:	8082                	ret

00000000502010c4 <bios_putchar>:
    502010c4:	1101                	addi	sp,sp,-32
    502010c6:	ec06                	sd	ra,24(sp)
    502010c8:	e822                	sd	s0,16(sp)
    502010ca:	1000                	addi	s0,sp,32
    502010cc:	87aa                	mv	a5,a0
    502010ce:	fef42623          	sw	a5,-20(s0)
    502010d2:	fec42583          	lw	a1,-20(s0)
    502010d6:	4781                	li	a5,0
    502010d8:	4701                	li	a4,0
    502010da:	4681                	li	a3,0
    502010dc:	4601                	li	a2,0
    502010de:	4505                	li	a0,1
    502010e0:	f5bff0ef          	jal	ra,5020103a <call_jmptab>
    502010e4:	0001                	nop
    502010e6:	60e2                	ld	ra,24(sp)
    502010e8:	6442                	ld	s0,16(sp)
    502010ea:	6105                	addi	sp,sp,32
    502010ec:	8082                	ret

00000000502010ee <bios_getchar>:
    502010ee:	1141                	addi	sp,sp,-16
    502010f0:	e406                	sd	ra,8(sp)
    502010f2:	e022                	sd	s0,0(sp)
    502010f4:	0800                	addi	s0,sp,16
    502010f6:	4781                	li	a5,0
    502010f8:	4701                	li	a4,0
    502010fa:	4681                	li	a3,0
    502010fc:	4601                	li	a2,0
    502010fe:	4581                	li	a1,0
    50201100:	4509                	li	a0,2
    50201102:	f39ff0ef          	jal	ra,5020103a <call_jmptab>
    50201106:	87aa                	mv	a5,a0
    50201108:	2781                	sext.w	a5,a5
    5020110a:	853e                	mv	a0,a5
    5020110c:	60a2                	ld	ra,8(sp)
    5020110e:	6402                	ld	s0,0(sp)
    50201110:	0141                	addi	sp,sp,16
    50201112:	8082                	ret

0000000050201114 <bios_sd_read>:
    50201114:	1101                	addi	sp,sp,-32
    50201116:	ec06                	sd	ra,24(sp)
    50201118:	e822                	sd	s0,16(sp)
    5020111a:	1000                	addi	s0,sp,32
    5020111c:	87aa                	mv	a5,a0
    5020111e:	86ae                	mv	a3,a1
    50201120:	8732                	mv	a4,a2
    50201122:	fef42623          	sw	a5,-20(s0)
    50201126:	87b6                	mv	a5,a3
    50201128:	fef42423          	sw	a5,-24(s0)
    5020112c:	87ba                	mv	a5,a4
    5020112e:	fef42223          	sw	a5,-28(s0)
    50201132:	fec46583          	lwu	a1,-20(s0)
    50201136:	fe846603          	lwu	a2,-24(s0)
    5020113a:	fe446683          	lwu	a3,-28(s0)
    5020113e:	4781                	li	a5,0
    50201140:	4701                	li	a4,0
    50201142:	450d                	li	a0,3
    50201144:	ef7ff0ef          	jal	ra,5020103a <call_jmptab>
    50201148:	87aa                	mv	a5,a0
    5020114a:	2781                	sext.w	a5,a5
    5020114c:	853e                	mv	a0,a5
    5020114e:	60e2                	ld	ra,24(sp)
    50201150:	6442                	ld	s0,16(sp)
    50201152:	6105                	addi	sp,sp,32
    50201154:	8082                	ret

0000000050201156 <bss_check>:
    50201156:	1101                	addi	sp,sp,-32
    50201158:	ec22                	sd	s0,24(sp)
    5020115a:	1000                	addi	s0,sp,32
    5020115c:	fe042623          	sw	zero,-20(s0)
    50201160:	a015                	j	50201184 <bss_check+0x2e>
    50201162:	00001717          	auipc	a4,0x1
    50201166:	dae70713          	addi	a4,a4,-594 # 50201f10 <buf>
    5020116a:	fec42783          	lw	a5,-20(s0)
    5020116e:	97ba                	add	a5,a5,a4
    50201170:	0007c783          	lbu	a5,0(a5) # a400000 <TEXT_START-0x45e01000>
    50201174:	c399                	beqz	a5,5020117a <bss_check+0x24>
    50201176:	4781                	li	a5,0
    50201178:	a839                	j	50201196 <bss_check+0x40>
    5020117a:	fec42783          	lw	a5,-20(s0)
    5020117e:	2785                	addiw	a5,a5,1
    50201180:	fef42623          	sw	a5,-20(s0)
    50201184:	fec42783          	lw	a5,-20(s0)
    50201188:	0007871b          	sext.w	a4,a5
    5020118c:	03100793          	li	a5,49
    50201190:	fce7d9e3          	bge	a5,a4,50201162 <bss_check+0xc>
    50201194:	4785                	li	a5,1
    50201196:	853e                	mv	a0,a5
    50201198:	6462                	ld	s0,24(sp)
    5020119a:	6105                	addi	sp,sp,32
    5020119c:	8082                	ret

000000005020119e <init_jmptab>:
    5020119e:	1101                	addi	sp,sp,-32
    502011a0:	ec22                	sd	s0,24(sp)
    502011a2:	1000                	addi	s0,sp,32
    502011a4:	520007b7          	lui	a5,0x52000
    502011a8:	f0078793          	addi	a5,a5,-256 # 51ffff00 <__BSS_END__+0x1dfdfb8>
    502011ac:	fef43423          	sd	a5,-24(s0)
    502011b0:	fe843783          	ld	a5,-24(s0)
    502011b4:	00000717          	auipc	a4,0x0
    502011b8:	32e70713          	addi	a4,a4,814 # 502014e2 <port_write>
    502011bc:	e398                	sd	a4,0(a5)
    502011be:	fe843783          	ld	a5,-24(s0)
    502011c2:	07a1                	addi	a5,a5,8
    502011c4:	00000717          	auipc	a4,0x0
    502011c8:	2f470713          	addi	a4,a4,756 # 502014b8 <port_write_ch>
    502011cc:	e398                	sd	a4,0(a5)
    502011ce:	fe843783          	ld	a5,-24(s0)
    502011d2:	07c1                	addi	a5,a5,16
    502011d4:	00000717          	auipc	a4,0x0
    502011d8:	33670713          	addi	a4,a4,822 # 5020150a <port_read_ch>
    502011dc:	e398                	sd	a4,0(a5)
    502011de:	fe843783          	ld	a5,-24(s0)
    502011e2:	07e1                	addi	a5,a5,24
    502011e4:	00000717          	auipc	a4,0x0
    502011e8:	34c70713          	addi	a4,a4,844 # 50201530 <sd_read>
    502011ec:	e398                	sd	a4,0(a5)
    502011ee:	0001                	nop
    502011f0:	6462                	ld	s0,24(sp)
    502011f2:	6105                	addi	sp,sp,32
    502011f4:	8082                	ret

00000000502011f6 <init_task_info>:
    502011f6:	1141                	addi	sp,sp,-16
    502011f8:	e406                	sd	ra,8(sp)
    502011fa:	e022                	sd	s0,0(sp)
    502011fc:	0800                	addi	s0,sp,16
    502011fe:	00001797          	auipc	a5,0x1
    50201202:	a1278793          	addi	a5,a5,-1518 # 50201c10 <_edata>
    50201206:	2781                	sext.w	a5,a5
    50201208:	4605                	li	a2,1
    5020120a:	4589                	li	a1,2
    5020120c:	853e                	mv	a0,a5
    5020120e:	f07ff0ef          	jal	ra,50201114 <bios_sd_read>
    50201212:	0001                	nop
    50201214:	60a2                	ld	ra,8(sp)
    50201216:	6402                	ld	s0,0(sp)
    50201218:	0141                	addi	sp,sp,16
    5020121a:	8082                	ret

000000005020121c <main>:
    5020121c:	7119                	addi	sp,sp,-128
    5020121e:	fc86                	sd	ra,120(sp)
    50201220:	f8a2                	sd	s0,112(sp)
    50201222:	0100                	addi	s0,sp,128
    50201224:	f33ff0ef          	jal	ra,50201156 <bss_check>
    50201228:	87aa                	mv	a5,a0
    5020122a:	fef42023          	sw	a5,-32(s0)
    5020122e:	f71ff0ef          	jal	ra,5020119e <init_jmptab>
    50201232:	fc5ff0ef          	jal	ra,502011f6 <init_task_info>
    50201236:	00001797          	auipc	a5,0x1
    5020123a:	9ba78793          	addi	a5,a5,-1606 # 50201bf0 <strcat+0xf0>
    5020123e:	6390                	ld	a2,0(a5)
    50201240:	6794                	ld	a3,8(a5)
    50201242:	6b98                	ld	a4,16(a5)
    50201244:	f8c43c23          	sd	a2,-104(s0)
    50201248:	fad43023          	sd	a3,-96(s0)
    5020124c:	fae43423          	sd	a4,-88(s0)
    50201250:	0187d783          	lhu	a5,24(a5)
    50201254:	faf41823          	sh	a5,-80(s0)
    50201258:	f8041823          	sh	zero,-112(s0)
    5020125c:	fe042423          	sw	zero,-24(s0)
    50201260:	fe042783          	lw	a5,-32(s0)
    50201264:	2781                	sext.w	a5,a5
    50201266:	c781                	beqz	a5,5020126e <main+0x52>
    50201268:	07400793          	li	a5,116
    5020126c:	a019                	j	50201272 <main+0x56>
    5020126e:	06600793          	li	a5,102
    50201272:	f8f40823          	sb	a5,-112(s0)
    50201276:	00001797          	auipc	a5,0x1
    5020127a:	99678793          	addi	a5,a5,-1642 # 50201c0c <version>
    5020127e:	439c                	lw	a5,0(a5)
    50201280:	0ff7f793          	andi	a5,a5,255
    50201284:	0307879b          	addiw	a5,a5,48
    50201288:	0ff7f793          	andi	a5,a5,255
    5020128c:	f8f408a3          	sb	a5,-111(s0)
    50201290:	fe042623          	sw	zero,-20(s0)
    50201294:	a885                	j	50201304 <main+0xe8>
    50201296:	fec42783          	lw	a5,-20(s0)
    5020129a:	ff040713          	addi	a4,s0,-16
    5020129e:	97ba                	add	a5,a5,a4
    502012a0:	fa87c703          	lbu	a4,-88(a5)
    502012a4:	00001697          	auipc	a3,0x1
    502012a8:	c6c68693          	addi	a3,a3,-916 # 50201f10 <buf>
    502012ac:	fec42783          	lw	a5,-20(s0)
    502012b0:	97b6                	add	a5,a5,a3
    502012b2:	00e78023          	sb	a4,0(a5)
    502012b6:	00001717          	auipc	a4,0x1
    502012ba:	c5a70713          	addi	a4,a4,-934 # 50201f10 <buf>
    502012be:	fec42783          	lw	a5,-20(s0)
    502012c2:	97ba                	add	a5,a5,a4
    502012c4:	0007c783          	lbu	a5,0(a5)
    502012c8:	873e                	mv	a4,a5
    502012ca:	05f00793          	li	a5,95
    502012ce:	02f71663          	bne	a4,a5,502012fa <main+0xde>
    502012d2:	fe842783          	lw	a5,-24(s0)
    502012d6:	0017871b          	addiw	a4,a5,1
    502012da:	fee42423          	sw	a4,-24(s0)
    502012de:	ff040713          	addi	a4,s0,-16
    502012e2:	97ba                	add	a5,a5,a4
    502012e4:	fa07c703          	lbu	a4,-96(a5)
    502012e8:	00001697          	auipc	a3,0x1
    502012ec:	c2868693          	addi	a3,a3,-984 # 50201f10 <buf>
    502012f0:	fec42783          	lw	a5,-20(s0)
    502012f4:	97b6                	add	a5,a5,a3
    502012f6:	00e78023          	sb	a4,0(a5)
    502012fa:	fec42783          	lw	a5,-20(s0)
    502012fe:	2785                	addiw	a5,a5,1
    50201300:	fef42623          	sw	a5,-20(s0)
    50201304:	fec42783          	lw	a5,-20(s0)
    50201308:	873e                	mv	a4,a5
    5020130a:	47e5                	li	a5,25
    5020130c:	f8e7f5e3          	bgeu	a5,a4,50201296 <main+0x7a>
    50201310:	00001517          	auipc	a0,0x1
    50201314:	86050513          	addi	a0,a0,-1952 # 50201b70 <strcat+0x70>
    50201318:	d85ff0ef          	jal	ra,5020109c <bios_putstr>
    5020131c:	00001517          	auipc	a0,0x1
    50201320:	bf450513          	addi	a0,a0,-1036 # 50201f10 <buf>
    50201324:	d79ff0ef          	jal	ra,5020109c <bios_putstr>
    50201328:	00001517          	auipc	a0,0x1
    5020132c:	85850513          	addi	a0,a0,-1960 # 50201b80 <strcat+0x80>
    50201330:	d6dff0ef          	jal	ra,5020109c <bios_putstr>
    50201334:	dbbff0ef          	jal	ra,502010ee <bios_getchar>
    50201338:	87aa                	mv	a5,a0
    5020133a:	fcf42e23          	sw	a5,-36(s0)
    5020133e:	fdc42783          	lw	a5,-36(s0)
    50201342:	0007871b          	sext.w	a4,a5
    50201346:	57fd                	li	a5,-1
    50201348:	00f70763          	beq	a4,a5,50201356 <main+0x13a>
    5020134c:	fdc42783          	lw	a5,-36(s0)
    50201350:	853e                	mv	a0,a5
    50201352:	d73ff0ef          	jal	ra,502010c4 <bios_putchar>
    50201356:	fdc42783          	lw	a5,-36(s0)
    5020135a:	0007871b          	sext.w	a4,a5
    5020135e:	03000793          	li	a5,48
    50201362:	00f70363          	beq	a4,a5,50201368 <main+0x14c>
    50201366:	b7f9                	j	50201334 <main+0x118>
    50201368:	0001                	nop
    5020136a:	00001517          	auipc	a0,0x1
    5020136e:	83e50513          	addi	a0,a0,-1986 # 50201ba8 <strcat+0xa8>
    50201372:	d2bff0ef          	jal	ra,5020109c <bios_putstr>
    50201376:	502007b7          	lui	a5,0x50200
    5020137a:	1fa78793          	addi	a5,a5,506 # 502001fa <TEXT_START-0xe06>
    5020137e:	0007d783          	lhu	a5,0(a5)
    50201382:	fcf41d23          	sh	a5,-38(s0)
    50201386:	fe042223          	sw	zero,-28(s0)
    5020138a:	a09d                	j	502013f0 <main+0x1d4>
    5020138c:	d63ff0ef          	jal	ra,502010ee <bios_getchar>
    50201390:	87aa                	mv	a5,a0
    50201392:	fcf42a23          	sw	a5,-44(s0)
    50201396:	fd442783          	lw	a5,-44(s0)
    5020139a:	0007871b          	sext.w	a4,a5
    5020139e:	57fd                	li	a5,-1
    502013a0:	04f70863          	beq	a4,a5,502013f0 <main+0x1d4>
    502013a4:	fd442783          	lw	a5,-44(s0)
    502013a8:	0007871b          	sext.w	a4,a5
    502013ac:	02a00793          	li	a5,42
    502013b0:	02f70863          	beq	a4,a5,502013e0 <main+0x1c4>
    502013b4:	fd442783          	lw	a5,-44(s0)
    502013b8:	0ff7f713          	andi	a4,a5,255
    502013bc:	fe442783          	lw	a5,-28(s0)
    502013c0:	ff040693          	addi	a3,s0,-16
    502013c4:	97b6                	add	a5,a5,a3
    502013c6:	f8e78823          	sb	a4,-112(a5)
    502013ca:	fd442783          	lw	a5,-44(s0)
    502013ce:	853e                	mv	a0,a5
    502013d0:	cf5ff0ef          	jal	ra,502010c4 <bios_putchar>
    502013d4:	fe442783          	lw	a5,-28(s0)
    502013d8:	2785                	addiw	a5,a5,1
    502013da:	fef42223          	sw	a5,-28(s0)
    502013de:	a809                	j	502013f0 <main+0x1d4>
    502013e0:	fe442783          	lw	a5,-28(s0)
    502013e4:	ff040713          	addi	a4,s0,-16
    502013e8:	97ba                	add	a5,a5,a4
    502013ea:	f8078823          	sb	zero,-112(a5)
    502013ee:	a801                	j	502013fe <main+0x1e2>
    502013f0:	fe442783          	lw	a5,-28(s0)
    502013f4:	0007871b          	sext.w	a4,a5
    502013f8:	47bd                	li	a5,15
    502013fa:	f8e7d9e3          	bge	a5,a4,5020138c <main+0x170>
    502013fe:	4529                	li	a0,10
    50201400:	cc5ff0ef          	jal	ra,502010c4 <bios_putchar>
    50201404:	fda41783          	lh	a5,-38(s0)
    50201408:	2781                	sext.w	a5,a5
    5020140a:	f8040713          	addi	a4,s0,-128
    5020140e:	85ba                	mv	a1,a4
    50201410:	853e                	mv	a0,a5
    50201412:	2fc000ef          	jal	ra,5020170e <load_task_img_filesz>
    50201416:	fca43423          	sd	a0,-56(s0)
    5020141a:	fda41783          	lh	a5,-38(s0)
    5020141e:	2781                	sext.w	a5,a5
    50201420:	f8040713          	addi	a4,s0,-128
    50201424:	85ba                	mv	a1,a4
    50201426:	853e                	mv	a0,a5
    50201428:	362000ef          	jal	ra,5020178a <load_task_img_memorysz>
    5020142c:	fca43023          	sd	a0,-64(s0)
    50201430:	fda41783          	lh	a5,-38(s0)
    50201434:	2781                	sext.w	a5,a5
    50201436:	f8040713          	addi	a4,s0,-128
    5020143a:	85ba                	mv	a1,a4
    5020143c:	853e                	mv	a0,a5
    5020143e:	1d8000ef          	jal	ra,50201616 <load_task_img_by_name>
    50201442:	87aa                	mv	a5,a0
    50201444:	faf43c23          	sd	a5,-72(s0)
    50201448:	fc843783          	ld	a5,-56(s0)
    5020144c:	883e                	mv	a6,a5
    5020144e:	fc043783          	ld	a5,-64(s0)
    50201452:	88be                	mv	a7,a5
    50201454:	fb843783          	ld	a5,-72(s0)
    50201458:	85be                	mv	a1,a5
    5020145a:	fb843783          	ld	a5,-72(s0)
    5020145e:	9782                	jalr	a5
    50201460:	b71d                	j	50201386 <main+0x16a>

0000000050201462 <call_bios>:
    50201462:	715d                	addi	sp,sp,-80
    50201464:	e486                	sd	ra,72(sp)
    50201466:	e0a2                	sd	s0,64(sp)
    50201468:	0880                	addi	s0,sp,80
    5020146a:	fca43c23          	sd	a0,-40(s0)
    5020146e:	fcb43823          	sd	a1,-48(s0)
    50201472:	fcc43423          	sd	a2,-56(s0)
    50201476:	fcd43023          	sd	a3,-64(s0)
    5020147a:	fae43c23          	sd	a4,-72(s0)
    5020147e:	faf43823          	sd	a5,-80(s0)
    50201482:	501507b7          	lui	a5,0x50150
    50201486:	fef43423          	sd	a5,-24(s0)
    5020148a:	fe843303          	ld	t1,-24(s0)
    5020148e:	fd843883          	ld	a7,-40(s0)
    50201492:	4801                	li	a6,0
    50201494:	4781                	li	a5,0
    50201496:	fb043703          	ld	a4,-80(s0)
    5020149a:	fb843683          	ld	a3,-72(s0)
    5020149e:	fc043603          	ld	a2,-64(s0)
    502014a2:	fc843583          	ld	a1,-56(s0)
    502014a6:	fd043503          	ld	a0,-48(s0)
    502014aa:	9302                	jalr	t1
    502014ac:	87aa                	mv	a5,a0
    502014ae:	853e                	mv	a0,a5
    502014b0:	60a6                	ld	ra,72(sp)
    502014b2:	6406                	ld	s0,64(sp)
    502014b4:	6161                	addi	sp,sp,80
    502014b6:	8082                	ret

00000000502014b8 <port_write_ch>:
    502014b8:	1101                	addi	sp,sp,-32
    502014ba:	ec06                	sd	ra,24(sp)
    502014bc:	e822                	sd	s0,16(sp)
    502014be:	1000                	addi	s0,sp,32
    502014c0:	87aa                	mv	a5,a0
    502014c2:	fef407a3          	sb	a5,-17(s0)
    502014c6:	fef44583          	lbu	a1,-17(s0)
    502014ca:	4781                	li	a5,0
    502014cc:	4701                	li	a4,0
    502014ce:	4681                	li	a3,0
    502014d0:	4601                	li	a2,0
    502014d2:	4505                	li	a0,1
    502014d4:	f8fff0ef          	jal	ra,50201462 <call_bios>
    502014d8:	0001                	nop
    502014da:	60e2                	ld	ra,24(sp)
    502014dc:	6442                	ld	s0,16(sp)
    502014de:	6105                	addi	sp,sp,32
    502014e0:	8082                	ret

00000000502014e2 <port_write>:
    502014e2:	1101                	addi	sp,sp,-32
    502014e4:	ec06                	sd	ra,24(sp)
    502014e6:	e822                	sd	s0,16(sp)
    502014e8:	1000                	addi	s0,sp,32
    502014ea:	fea43423          	sd	a0,-24(s0)
    502014ee:	fe843583          	ld	a1,-24(s0)
    502014f2:	4781                	li	a5,0
    502014f4:	4701                	li	a4,0
    502014f6:	4681                	li	a3,0
    502014f8:	4601                	li	a2,0
    502014fa:	4525                	li	a0,9
    502014fc:	f67ff0ef          	jal	ra,50201462 <call_bios>
    50201500:	0001                	nop
    50201502:	60e2                	ld	ra,24(sp)
    50201504:	6442                	ld	s0,16(sp)
    50201506:	6105                	addi	sp,sp,32
    50201508:	8082                	ret

000000005020150a <port_read_ch>:
    5020150a:	1141                	addi	sp,sp,-16
    5020150c:	e406                	sd	ra,8(sp)
    5020150e:	e022                	sd	s0,0(sp)
    50201510:	0800                	addi	s0,sp,16
    50201512:	4781                	li	a5,0
    50201514:	4701                	li	a4,0
    50201516:	4681                	li	a3,0
    50201518:	4601                	li	a2,0
    5020151a:	4581                	li	a1,0
    5020151c:	4509                	li	a0,2
    5020151e:	f45ff0ef          	jal	ra,50201462 <call_bios>
    50201522:	87aa                	mv	a5,a0
    50201524:	2781                	sext.w	a5,a5
    50201526:	853e                	mv	a0,a5
    50201528:	60a2                	ld	ra,8(sp)
    5020152a:	6402                	ld	s0,0(sp)
    5020152c:	0141                	addi	sp,sp,16
    5020152e:	8082                	ret

0000000050201530 <sd_read>:
    50201530:	1101                	addi	sp,sp,-32
    50201532:	ec06                	sd	ra,24(sp)
    50201534:	e822                	sd	s0,16(sp)
    50201536:	1000                	addi	s0,sp,32
    50201538:	87aa                	mv	a5,a0
    5020153a:	86ae                	mv	a3,a1
    5020153c:	8732                	mv	a4,a2
    5020153e:	fef42623          	sw	a5,-20(s0)
    50201542:	87b6                	mv	a5,a3
    50201544:	fef42423          	sw	a5,-24(s0)
    50201548:	87ba                	mv	a5,a4
    5020154a:	fef42223          	sw	a5,-28(s0)
    5020154e:	fec46583          	lwu	a1,-20(s0)
    50201552:	fe846603          	lwu	a2,-24(s0)
    50201556:	fe446683          	lwu	a3,-28(s0)
    5020155a:	4781                	li	a5,0
    5020155c:	4701                	li	a4,0
    5020155e:	452d                	li	a0,11
    50201560:	f03ff0ef          	jal	ra,50201462 <call_bios>
    50201564:	87aa                	mv	a5,a0
    50201566:	2781                	sext.w	a5,a5
    50201568:	853e                	mv	a0,a5
    5020156a:	60e2                	ld	ra,24(sp)
    5020156c:	6442                	ld	s0,16(sp)
    5020156e:	6105                	addi	sp,sp,32
    50201570:	8082                	ret

0000000050201572 <call_jmptab>:
    50201572:	715d                	addi	sp,sp,-80
    50201574:	e486                	sd	ra,72(sp)
    50201576:	e0a2                	sd	s0,64(sp)
    50201578:	0880                	addi	s0,sp,80
    5020157a:	fca43c23          	sd	a0,-40(s0)
    5020157e:	fcb43823          	sd	a1,-48(s0)
    50201582:	fcc43423          	sd	a2,-56(s0)
    50201586:	fcd43023          	sd	a3,-64(s0)
    5020158a:	fae43c23          	sd	a4,-72(s0)
    5020158e:	faf43823          	sd	a5,-80(s0)
    50201592:	fd843703          	ld	a4,-40(s0)
    50201596:	0a4007b7          	lui	a5,0xa400
    5020159a:	1781                	addi	a5,a5,-32
    5020159c:	97ba                	add	a5,a5,a4
    5020159e:	078e                	slli	a5,a5,0x3
    502015a0:	639c                	ld	a5,0(a5)
    502015a2:	fef43423          	sd	a5,-24(s0)
    502015a6:	fe843783          	ld	a5,-24(s0)
    502015aa:	fef43023          	sd	a5,-32(s0)
    502015ae:	fe043783          	ld	a5,-32(s0)
    502015b2:	fb043703          	ld	a4,-80(s0)
    502015b6:	fb843683          	ld	a3,-72(s0)
    502015ba:	fc043603          	ld	a2,-64(s0)
    502015be:	fc843583          	ld	a1,-56(s0)
    502015c2:	fd043503          	ld	a0,-48(s0)
    502015c6:	9782                	jalr	a5
    502015c8:	87aa                	mv	a5,a0
    502015ca:	853e                	mv	a0,a5
    502015cc:	60a6                	ld	ra,72(sp)
    502015ce:	6406                	ld	s0,64(sp)
    502015d0:	6161                	addi	sp,sp,80
    502015d2:	8082                	ret

00000000502015d4 <bios_sd_read>:
    502015d4:	1101                	addi	sp,sp,-32
    502015d6:	ec06                	sd	ra,24(sp)
    502015d8:	e822                	sd	s0,16(sp)
    502015da:	1000                	addi	s0,sp,32
    502015dc:	87aa                	mv	a5,a0
    502015de:	86ae                	mv	a3,a1
    502015e0:	8732                	mv	a4,a2
    502015e2:	fef42623          	sw	a5,-20(s0)
    502015e6:	87b6                	mv	a5,a3
    502015e8:	fef42423          	sw	a5,-24(s0)
    502015ec:	87ba                	mv	a5,a4
    502015ee:	fef42223          	sw	a5,-28(s0)
    502015f2:	fec46583          	lwu	a1,-20(s0)
    502015f6:	fe846603          	lwu	a2,-24(s0)
    502015fa:	fe446683          	lwu	a3,-28(s0)
    502015fe:	4781                	li	a5,0
    50201600:	4701                	li	a4,0
    50201602:	450d                	li	a0,3
    50201604:	f6fff0ef          	jal	ra,50201572 <call_jmptab>
    50201608:	87aa                	mv	a5,a0
    5020160a:	2781                	sext.w	a5,a5
    5020160c:	853e                	mv	a0,a5
    5020160e:	60e2                	ld	ra,24(sp)
    50201610:	6442                	ld	s0,16(sp)
    50201612:	6105                	addi	sp,sp,32
    50201614:	8082                	ret

0000000050201616 <load_task_img_by_name>:
    50201616:	715d                	addi	sp,sp,-80
    50201618:	e486                	sd	ra,72(sp)
    5020161a:	e0a2                	sd	s0,64(sp)
    5020161c:	0880                	addi	s0,sp,80
    5020161e:	87aa                	mv	a5,a0
    50201620:	fab43823          	sd	a1,-80(s0)
    50201624:	faf42e23          	sw	a5,-68(s0)
    50201628:	fe042623          	sw	zero,-20(s0)
    5020162c:	a0d9                	j	502016f2 <load_task_img_by_name+0xdc>
    5020162e:	fec42703          	lw	a4,-20(s0)
    50201632:	87ba                	mv	a5,a4
    50201634:	0786                	slli	a5,a5,0x1
    50201636:	97ba                	add	a5,a5,a4
    50201638:	0792                	slli	a5,a5,0x4
    5020163a:	00000717          	auipc	a4,0x0
    5020163e:	5d670713          	addi	a4,a4,1494 # 50201c10 <_edata>
    50201642:	97ba                	add	a5,a5,a4
    50201644:	85be                	mv	a1,a5
    50201646:	fb043503          	ld	a0,-80(s0)
    5020164a:	2c2000ef          	jal	ra,5020190c <strcmp>
    5020164e:	87aa                	mv	a5,a0
    50201650:	efc1                	bnez	a5,502016e8 <load_task_img_by_name+0xd2>
    50201652:	fec42703          	lw	a4,-20(s0)
    50201656:	6795                	lui	a5,0x5
    50201658:	1ff7879b          	addiw	a5,a5,511
    5020165c:	9fb9                	addw	a5,a5,a4
    5020165e:	2781                	sext.w	a5,a5
    50201660:	0107979b          	slliw	a5,a5,0x10
    50201664:	2781                	sext.w	a5,a5
    50201666:	fef43023          	sd	a5,-32(s0)
    5020166a:	00000697          	auipc	a3,0x0
    5020166e:	5a668693          	addi	a3,a3,1446 # 50201c10 <_edata>
    50201672:	fec42703          	lw	a4,-20(s0)
    50201676:	87ba                	mv	a5,a4
    50201678:	0786                	slli	a5,a5,0x1
    5020167a:	97ba                	add	a5,a5,a4
    5020167c:	0792                	slli	a5,a5,0x4
    5020167e:	97b6                	add	a5,a5,a3
    50201680:	779c                	ld	a5,40(a5)
    50201682:	fe043703          	ld	a4,-32(s0)
    50201686:	40f707b3          	sub	a5,a4,a5
    5020168a:	fcf43c23          	sd	a5,-40(s0)
    5020168e:	00000697          	auipc	a3,0x0
    50201692:	58268693          	addi	a3,a3,1410 # 50201c10 <_edata>
    50201696:	fec42703          	lw	a4,-20(s0)
    5020169a:	87ba                	mv	a5,a4
    5020169c:	0786                	slli	a5,a5,0x1
    5020169e:	97ba                	add	a5,a5,a4
    502016a0:	0792                	slli	a5,a5,0x4
    502016a2:	97b6                	add	a5,a5,a3
    502016a4:	4bdc                	lw	a5,20(a5)
    502016a6:	fcf43823          	sd	a5,-48(s0)
    502016aa:	00000697          	auipc	a3,0x0
    502016ae:	56668693          	addi	a3,a3,1382 # 50201c10 <_edata>
    502016b2:	fec42703          	lw	a4,-20(s0)
    502016b6:	87ba                	mv	a5,a4
    502016b8:	0786                	slli	a5,a5,0x1
    502016ba:	97ba                	add	a5,a5,a4
    502016bc:	0792                	slli	a5,a5,0x4
    502016be:	97b6                	add	a5,a5,a3
    502016c0:	4b9c                	lw	a5,16(a5)
    502016c2:	fcf43423          	sd	a5,-56(s0)
    502016c6:	fd843783          	ld	a5,-40(s0)
    502016ca:	2781                	sext.w	a5,a5
    502016cc:	fd043703          	ld	a4,-48(s0)
    502016d0:	2701                	sext.w	a4,a4
    502016d2:	fc843683          	ld	a3,-56(s0)
    502016d6:	2681                	sext.w	a3,a3
    502016d8:	8636                	mv	a2,a3
    502016da:	85ba                	mv	a1,a4
    502016dc:	853e                	mv	a0,a5
    502016de:	ef7ff0ef          	jal	ra,502015d4 <bios_sd_read>
    502016e2:	fe043783          	ld	a5,-32(s0)
    502016e6:	a839                	j	50201704 <load_task_img_by_name+0xee>
    502016e8:	fec42783          	lw	a5,-20(s0)
    502016ec:	2785                	addiw	a5,a5,1
    502016ee:	fef42623          	sw	a5,-20(s0)
    502016f2:	fbc42703          	lw	a4,-68(s0)
    502016f6:	fec42783          	lw	a5,-20(s0)
    502016fa:	2701                	sext.w	a4,a4
    502016fc:	2781                	sext.w	a5,a5
    502016fe:	f2f758e3          	bge	a4,a5,5020162e <load_task_img_by_name+0x18>
    50201702:	4781                	li	a5,0
    50201704:	853e                	mv	a0,a5
    50201706:	60a6                	ld	ra,72(sp)
    50201708:	6406                	ld	s0,64(sp)
    5020170a:	6161                	addi	sp,sp,80
    5020170c:	8082                	ret

000000005020170e <load_task_img_filesz>:
    5020170e:	7179                	addi	sp,sp,-48
    50201710:	f406                	sd	ra,40(sp)
    50201712:	f022                	sd	s0,32(sp)
    50201714:	1800                	addi	s0,sp,48
    50201716:	87aa                	mv	a5,a0
    50201718:	fcb43823          	sd	a1,-48(s0)
    5020171c:	fcf42e23          	sw	a5,-36(s0)
    50201720:	fe042623          	sw	zero,-20(s0)
    50201724:	a0a9                	j	5020176e <load_task_img_filesz+0x60>
    50201726:	fec42703          	lw	a4,-20(s0)
    5020172a:	87ba                	mv	a5,a4
    5020172c:	0786                	slli	a5,a5,0x1
    5020172e:	97ba                	add	a5,a5,a4
    50201730:	0792                	slli	a5,a5,0x4
    50201732:	00000717          	auipc	a4,0x0
    50201736:	4de70713          	addi	a4,a4,1246 # 50201c10 <_edata>
    5020173a:	97ba                	add	a5,a5,a4
    5020173c:	85be                	mv	a1,a5
    5020173e:	fd043503          	ld	a0,-48(s0)
    50201742:	1ca000ef          	jal	ra,5020190c <strcmp>
    50201746:	87aa                	mv	a5,a0
    50201748:	ef91                	bnez	a5,50201764 <load_task_img_filesz+0x56>
    5020174a:	00000697          	auipc	a3,0x0
    5020174e:	4c668693          	addi	a3,a3,1222 # 50201c10 <_edata>
    50201752:	fec42703          	lw	a4,-20(s0)
    50201756:	87ba                	mv	a5,a4
    50201758:	0786                	slli	a5,a5,0x1
    5020175a:	97ba                	add	a5,a5,a4
    5020175c:	0792                	slli	a5,a5,0x4
    5020175e:	97b6                	add	a5,a5,a3
    50201760:	6f9c                	ld	a5,24(a5)
    50201762:	a839                	j	50201780 <load_task_img_filesz+0x72>
    50201764:	fec42783          	lw	a5,-20(s0)
    50201768:	2785                	addiw	a5,a5,1
    5020176a:	fef42623          	sw	a5,-20(s0)
    5020176e:	fdc42703          	lw	a4,-36(s0)
    50201772:	fec42783          	lw	a5,-20(s0)
    50201776:	2701                	sext.w	a4,a4
    50201778:	2781                	sext.w	a5,a5
    5020177a:	faf756e3          	bge	a4,a5,50201726 <load_task_img_filesz+0x18>
    5020177e:	4781                	li	a5,0
    50201780:	853e                	mv	a0,a5
    50201782:	70a2                	ld	ra,40(sp)
    50201784:	7402                	ld	s0,32(sp)
    50201786:	6145                	addi	sp,sp,48
    50201788:	8082                	ret

000000005020178a <load_task_img_memorysz>:
    5020178a:	7179                	addi	sp,sp,-48
    5020178c:	f406                	sd	ra,40(sp)
    5020178e:	f022                	sd	s0,32(sp)
    50201790:	1800                	addi	s0,sp,48
    50201792:	87aa                	mv	a5,a0
    50201794:	fcb43823          	sd	a1,-48(s0)
    50201798:	fcf42e23          	sw	a5,-36(s0)
    5020179c:	fe042623          	sw	zero,-20(s0)
    502017a0:	a0a9                	j	502017ea <load_task_img_memorysz+0x60>
    502017a2:	fec42703          	lw	a4,-20(s0)
    502017a6:	87ba                	mv	a5,a4
    502017a8:	0786                	slli	a5,a5,0x1
    502017aa:	97ba                	add	a5,a5,a4
    502017ac:	0792                	slli	a5,a5,0x4
    502017ae:	00000717          	auipc	a4,0x0
    502017b2:	46270713          	addi	a4,a4,1122 # 50201c10 <_edata>
    502017b6:	97ba                	add	a5,a5,a4
    502017b8:	85be                	mv	a1,a5
    502017ba:	fd043503          	ld	a0,-48(s0)
    502017be:	14e000ef          	jal	ra,5020190c <strcmp>
    502017c2:	87aa                	mv	a5,a0
    502017c4:	ef91                	bnez	a5,502017e0 <load_task_img_memorysz+0x56>
    502017c6:	00000697          	auipc	a3,0x0
    502017ca:	44a68693          	addi	a3,a3,1098 # 50201c10 <_edata>
    502017ce:	fec42703          	lw	a4,-20(s0)
    502017d2:	87ba                	mv	a5,a4
    502017d4:	0786                	slli	a5,a5,0x1
    502017d6:	97ba                	add	a5,a5,a4
    502017d8:	0792                	slli	a5,a5,0x4
    502017da:	97b6                	add	a5,a5,a3
    502017dc:	739c                	ld	a5,32(a5)
    502017de:	a839                	j	502017fc <load_task_img_memorysz+0x72>
    502017e0:	fec42783          	lw	a5,-20(s0)
    502017e4:	2785                	addiw	a5,a5,1
    502017e6:	fef42623          	sw	a5,-20(s0)
    502017ea:	fdc42703          	lw	a4,-36(s0)
    502017ee:	fec42783          	lw	a5,-20(s0)
    502017f2:	2701                	sext.w	a4,a4
    502017f4:	2781                	sext.w	a5,a5
    502017f6:	faf756e3          	bge	a4,a5,502017a2 <load_task_img_memorysz+0x18>
    502017fa:	4781                	li	a5,0
    502017fc:	853e                	mv	a0,a5
    502017fe:	70a2                	ld	ra,40(sp)
    50201800:	7402                	ld	s0,32(sp)
    50201802:	6145                	addi	sp,sp,48
    50201804:	8082                	ret

0000000050201806 <memcpy>:
    50201806:	7179                	addi	sp,sp,-48
    50201808:	f422                	sd	s0,40(sp)
    5020180a:	1800                	addi	s0,sp,48
    5020180c:	fea43423          	sd	a0,-24(s0)
    50201810:	feb43023          	sd	a1,-32(s0)
    50201814:	87b2                	mv	a5,a2
    50201816:	fcf42e23          	sw	a5,-36(s0)
    5020181a:	a035                	j	50201846 <memcpy+0x40>
    5020181c:	fe043703          	ld	a4,-32(s0)
    50201820:	00170793          	addi	a5,a4,1
    50201824:	fef43023          	sd	a5,-32(s0)
    50201828:	fe843783          	ld	a5,-24(s0)
    5020182c:	00178693          	addi	a3,a5,1 # 5001 <TEXT_START-0x501fbfff>
    50201830:	fed43423          	sd	a3,-24(s0)
    50201834:	00074703          	lbu	a4,0(a4)
    50201838:	00e78023          	sb	a4,0(a5)
    5020183c:	fdc42783          	lw	a5,-36(s0)
    50201840:	37fd                	addiw	a5,a5,-1
    50201842:	fcf42e23          	sw	a5,-36(s0)
    50201846:	fdc42783          	lw	a5,-36(s0)
    5020184a:	2781                	sext.w	a5,a5
    5020184c:	fbe1                	bnez	a5,5020181c <memcpy+0x16>
    5020184e:	0001                	nop
    50201850:	0001                	nop
    50201852:	7422                	ld	s0,40(sp)
    50201854:	6145                	addi	sp,sp,48
    50201856:	8082                	ret

0000000050201858 <memset>:
    50201858:	7179                	addi	sp,sp,-48
    5020185a:	f422                	sd	s0,40(sp)
    5020185c:	1800                	addi	s0,sp,48
    5020185e:	fca43c23          	sd	a0,-40(s0)
    50201862:	87ae                	mv	a5,a1
    50201864:	8732                	mv	a4,a2
    50201866:	fcf40ba3          	sb	a5,-41(s0)
    5020186a:	87ba                	mv	a5,a4
    5020186c:	fcf42823          	sw	a5,-48(s0)
    50201870:	fd843783          	ld	a5,-40(s0)
    50201874:	fef43423          	sd	a5,-24(s0)
    50201878:	a005                	j	50201898 <memset+0x40>
    5020187a:	fe843783          	ld	a5,-24(s0)
    5020187e:	00178713          	addi	a4,a5,1
    50201882:	fee43423          	sd	a4,-24(s0)
    50201886:	fd744703          	lbu	a4,-41(s0)
    5020188a:	00e78023          	sb	a4,0(a5)
    5020188e:	fd042783          	lw	a5,-48(s0)
    50201892:	37fd                	addiw	a5,a5,-1
    50201894:	fcf42823          	sw	a5,-48(s0)
    50201898:	fd042783          	lw	a5,-48(s0)
    5020189c:	2781                	sext.w	a5,a5
    5020189e:	fff1                	bnez	a5,5020187a <memset+0x22>
    502018a0:	0001                	nop
    502018a2:	0001                	nop
    502018a4:	7422                	ld	s0,40(sp)
    502018a6:	6145                	addi	sp,sp,48
    502018a8:	8082                	ret

00000000502018aa <bzero>:
    502018aa:	1101                	addi	sp,sp,-32
    502018ac:	ec06                	sd	ra,24(sp)
    502018ae:	e822                	sd	s0,16(sp)
    502018b0:	1000                	addi	s0,sp,32
    502018b2:	fea43423          	sd	a0,-24(s0)
    502018b6:	87ae                	mv	a5,a1
    502018b8:	fef42223          	sw	a5,-28(s0)
    502018bc:	fe442783          	lw	a5,-28(s0)
    502018c0:	863e                	mv	a2,a5
    502018c2:	4581                	li	a1,0
    502018c4:	fe843503          	ld	a0,-24(s0)
    502018c8:	f91ff0ef          	jal	ra,50201858 <memset>
    502018cc:	0001                	nop
    502018ce:	60e2                	ld	ra,24(sp)
    502018d0:	6442                	ld	s0,16(sp)
    502018d2:	6105                	addi	sp,sp,32
    502018d4:	8082                	ret

00000000502018d6 <strlen>:
    502018d6:	7179                	addi	sp,sp,-48
    502018d8:	f422                	sd	s0,40(sp)
    502018da:	1800                	addi	s0,sp,48
    502018dc:	fca43c23          	sd	a0,-40(s0)
    502018e0:	fe042623          	sw	zero,-20(s0)
    502018e4:	a031                	j	502018f0 <strlen+0x1a>
    502018e6:	fec42783          	lw	a5,-20(s0)
    502018ea:	2785                	addiw	a5,a5,1
    502018ec:	fef42623          	sw	a5,-20(s0)
    502018f0:	fec42783          	lw	a5,-20(s0)
    502018f4:	fd843703          	ld	a4,-40(s0)
    502018f8:	97ba                	add	a5,a5,a4
    502018fa:	0007c783          	lbu	a5,0(a5)
    502018fe:	f7e5                	bnez	a5,502018e6 <strlen+0x10>
    50201900:	fec42783          	lw	a5,-20(s0)
    50201904:	853e                	mv	a0,a5
    50201906:	7422                	ld	s0,40(sp)
    50201908:	6145                	addi	sp,sp,48
    5020190a:	8082                	ret

000000005020190c <strcmp>:
    5020190c:	1101                	addi	sp,sp,-32
    5020190e:	ec22                	sd	s0,24(sp)
    50201910:	1000                	addi	s0,sp,32
    50201912:	fea43423          	sd	a0,-24(s0)
    50201916:	feb43023          	sd	a1,-32(s0)
    5020191a:	a0a1                	j	50201962 <strcmp+0x56>
    5020191c:	fe843783          	ld	a5,-24(s0)
    50201920:	0007c703          	lbu	a4,0(a5)
    50201924:	fe043783          	ld	a5,-32(s0)
    50201928:	0007c783          	lbu	a5,0(a5)
    5020192c:	02f70163          	beq	a4,a5,5020194e <strcmp+0x42>
    50201930:	fe843783          	ld	a5,-24(s0)
    50201934:	0007c783          	lbu	a5,0(a5)
    50201938:	0007871b          	sext.w	a4,a5
    5020193c:	fe043783          	ld	a5,-32(s0)
    50201940:	0007c783          	lbu	a5,0(a5)
    50201944:	2781                	sext.w	a5,a5
    50201946:	40f707bb          	subw	a5,a4,a5
    5020194a:	2781                	sext.w	a5,a5
    5020194c:	a099                	j	50201992 <strcmp+0x86>
    5020194e:	fe843783          	ld	a5,-24(s0)
    50201952:	0785                	addi	a5,a5,1
    50201954:	fef43423          	sd	a5,-24(s0)
    50201958:	fe043783          	ld	a5,-32(s0)
    5020195c:	0785                	addi	a5,a5,1
    5020195e:	fef43023          	sd	a5,-32(s0)
    50201962:	fe843783          	ld	a5,-24(s0)
    50201966:	0007c783          	lbu	a5,0(a5)
    5020196a:	c791                	beqz	a5,50201976 <strcmp+0x6a>
    5020196c:	fe043783          	ld	a5,-32(s0)
    50201970:	0007c783          	lbu	a5,0(a5)
    50201974:	f7c5                	bnez	a5,5020191c <strcmp+0x10>
    50201976:	fe843783          	ld	a5,-24(s0)
    5020197a:	0007c783          	lbu	a5,0(a5)
    5020197e:	0007871b          	sext.w	a4,a5
    50201982:	fe043783          	ld	a5,-32(s0)
    50201986:	0007c783          	lbu	a5,0(a5)
    5020198a:	2781                	sext.w	a5,a5
    5020198c:	40f707bb          	subw	a5,a4,a5
    50201990:	2781                	sext.w	a5,a5
    50201992:	853e                	mv	a0,a5
    50201994:	6462                	ld	s0,24(sp)
    50201996:	6105                	addi	sp,sp,32
    50201998:	8082                	ret

000000005020199a <strncmp>:
    5020199a:	7139                	addi	sp,sp,-64
    5020199c:	fc22                	sd	s0,56(sp)
    5020199e:	0080                	addi	s0,sp,64
    502019a0:	fca43c23          	sd	a0,-40(s0)
    502019a4:	fcb43823          	sd	a1,-48(s0)
    502019a8:	87b2                	mv	a5,a2
    502019aa:	fcf42623          	sw	a5,-52(s0)
    502019ae:	fe042623          	sw	zero,-20(s0)
    502019b2:	a8a1                	j	50201a0a <strncmp+0x70>
    502019b4:	fec42783          	lw	a5,-20(s0)
    502019b8:	fd843703          	ld	a4,-40(s0)
    502019bc:	97ba                	add	a5,a5,a4
    502019be:	0007c683          	lbu	a3,0(a5)
    502019c2:	fec42783          	lw	a5,-20(s0)
    502019c6:	fd043703          	ld	a4,-48(s0)
    502019ca:	97ba                	add	a5,a5,a4
    502019cc:	0007c783          	lbu	a5,0(a5)
    502019d0:	8736                	mv	a4,a3
    502019d2:	02f70763          	beq	a4,a5,50201a00 <strncmp+0x66>
    502019d6:	fec42783          	lw	a5,-20(s0)
    502019da:	fd843703          	ld	a4,-40(s0)
    502019de:	97ba                	add	a5,a5,a4
    502019e0:	0007c783          	lbu	a5,0(a5)
    502019e4:	0007871b          	sext.w	a4,a5
    502019e8:	fec42783          	lw	a5,-20(s0)
    502019ec:	fd043683          	ld	a3,-48(s0)
    502019f0:	97b6                	add	a5,a5,a3
    502019f2:	0007c783          	lbu	a5,0(a5)
    502019f6:	2781                	sext.w	a5,a5
    502019f8:	40f707bb          	subw	a5,a4,a5
    502019fc:	2781                	sext.w	a5,a5
    502019fe:	a839                	j	50201a1c <strncmp+0x82>
    50201a00:	fec42783          	lw	a5,-20(s0)
    50201a04:	2785                	addiw	a5,a5,1
    50201a06:	fef42623          	sw	a5,-20(s0)
    50201a0a:	fec42703          	lw	a4,-20(s0)
    50201a0e:	fcc42783          	lw	a5,-52(s0)
    50201a12:	2701                	sext.w	a4,a4
    50201a14:	2781                	sext.w	a5,a5
    50201a16:	f8f74fe3          	blt	a4,a5,502019b4 <strncmp+0x1a>
    50201a1a:	4781                	li	a5,0
    50201a1c:	853e                	mv	a0,a5
    50201a1e:	7462                	ld	s0,56(sp)
    50201a20:	6121                	addi	sp,sp,64
    50201a22:	8082                	ret

0000000050201a24 <strcpy>:
    50201a24:	7179                	addi	sp,sp,-48
    50201a26:	f422                	sd	s0,40(sp)
    50201a28:	1800                	addi	s0,sp,48
    50201a2a:	fca43c23          	sd	a0,-40(s0)
    50201a2e:	fcb43823          	sd	a1,-48(s0)
    50201a32:	fd843783          	ld	a5,-40(s0)
    50201a36:	fef43423          	sd	a5,-24(s0)
    50201a3a:	a00d                	j	50201a5c <strcpy+0x38>
    50201a3c:	fd043703          	ld	a4,-48(s0)
    50201a40:	00170793          	addi	a5,a4,1
    50201a44:	fcf43823          	sd	a5,-48(s0)
    50201a48:	fd843783          	ld	a5,-40(s0)
    50201a4c:	00178693          	addi	a3,a5,1
    50201a50:	fcd43c23          	sd	a3,-40(s0)
    50201a54:	00074703          	lbu	a4,0(a4)
    50201a58:	00e78023          	sb	a4,0(a5)
    50201a5c:	fd043783          	ld	a5,-48(s0)
    50201a60:	0007c783          	lbu	a5,0(a5)
    50201a64:	ffe1                	bnez	a5,50201a3c <strcpy+0x18>
    50201a66:	fd843783          	ld	a5,-40(s0)
    50201a6a:	00078023          	sb	zero,0(a5)
    50201a6e:	fe843783          	ld	a5,-24(s0)
    50201a72:	853e                	mv	a0,a5
    50201a74:	7422                	ld	s0,40(sp)
    50201a76:	6145                	addi	sp,sp,48
    50201a78:	8082                	ret

0000000050201a7a <strncpy>:
    50201a7a:	7139                	addi	sp,sp,-64
    50201a7c:	fc22                	sd	s0,56(sp)
    50201a7e:	0080                	addi	s0,sp,64
    50201a80:	fca43c23          	sd	a0,-40(s0)
    50201a84:	fcb43823          	sd	a1,-48(s0)
    50201a88:	87b2                	mv	a5,a2
    50201a8a:	fcf42623          	sw	a5,-52(s0)
    50201a8e:	fd843783          	ld	a5,-40(s0)
    50201a92:	fef43423          	sd	a5,-24(s0)
    50201a96:	a00d                	j	50201ab8 <strncpy+0x3e>
    50201a98:	fd043703          	ld	a4,-48(s0)
    50201a9c:	00170793          	addi	a5,a4,1
    50201aa0:	fcf43823          	sd	a5,-48(s0)
    50201aa4:	fd843783          	ld	a5,-40(s0)
    50201aa8:	00178693          	addi	a3,a5,1
    50201aac:	fcd43c23          	sd	a3,-40(s0)
    50201ab0:	00074703          	lbu	a4,0(a4)
    50201ab4:	00e78023          	sb	a4,0(a5)
    50201ab8:	fd043783          	ld	a5,-48(s0)
    50201abc:	0007c783          	lbu	a5,0(a5)
    50201ac0:	c395                	beqz	a5,50201ae4 <strncpy+0x6a>
    50201ac2:	fcc42783          	lw	a5,-52(s0)
    50201ac6:	fff7871b          	addiw	a4,a5,-1
    50201aca:	fce42623          	sw	a4,-52(s0)
    50201ace:	fcf045e3          	bgtz	a5,50201a98 <strncpy+0x1e>
    50201ad2:	a809                	j	50201ae4 <strncpy+0x6a>
    50201ad4:	fd843783          	ld	a5,-40(s0)
    50201ad8:	00178713          	addi	a4,a5,1
    50201adc:	fce43c23          	sd	a4,-40(s0)
    50201ae0:	00078023          	sb	zero,0(a5)
    50201ae4:	fcc42783          	lw	a5,-52(s0)
    50201ae8:	fff7871b          	addiw	a4,a5,-1
    50201aec:	fce42623          	sw	a4,-52(s0)
    50201af0:	fef042e3          	bgtz	a5,50201ad4 <strncpy+0x5a>
    50201af4:	fe843783          	ld	a5,-24(s0)
    50201af8:	853e                	mv	a0,a5
    50201afa:	7462                	ld	s0,56(sp)
    50201afc:	6121                	addi	sp,sp,64
    50201afe:	8082                	ret

0000000050201b00 <strcat>:
    50201b00:	7179                	addi	sp,sp,-48
    50201b02:	f422                	sd	s0,40(sp)
    50201b04:	1800                	addi	s0,sp,48
    50201b06:	fca43c23          	sd	a0,-40(s0)
    50201b0a:	fcb43823          	sd	a1,-48(s0)
    50201b0e:	fd843783          	ld	a5,-40(s0)
    50201b12:	fef43423          	sd	a5,-24(s0)
    50201b16:	a031                	j	50201b22 <strcat+0x22>
    50201b18:	fd843783          	ld	a5,-40(s0)
    50201b1c:	0785                	addi	a5,a5,1
    50201b1e:	fcf43c23          	sd	a5,-40(s0)
    50201b22:	fd843783          	ld	a5,-40(s0)
    50201b26:	0007c783          	lbu	a5,0(a5)
    50201b2a:	f7fd                	bnez	a5,50201b18 <strcat+0x18>
    50201b2c:	a00d                	j	50201b4e <strcat+0x4e>
    50201b2e:	fd043703          	ld	a4,-48(s0)
    50201b32:	00170793          	addi	a5,a4,1
    50201b36:	fcf43823          	sd	a5,-48(s0)
    50201b3a:	fd843783          	ld	a5,-40(s0)
    50201b3e:	00178693          	addi	a3,a5,1
    50201b42:	fcd43c23          	sd	a3,-40(s0)
    50201b46:	00074703          	lbu	a4,0(a4)
    50201b4a:	00e78023          	sb	a4,0(a5)
    50201b4e:	fd043783          	ld	a5,-48(s0)
    50201b52:	0007c783          	lbu	a5,0(a5)
    50201b56:	ffe1                	bnez	a5,50201b2e <strcat+0x2e>
    50201b58:	fd843783          	ld	a5,-40(s0)
    50201b5c:	00078023          	sb	zero,0(a5)
    50201b60:	fe843783          	ld	a5,-24(s0)
    50201b64:	853e                	mv	a0,a5
    50201b66:	7422                	ld	s0,40(sp)
    50201b68:	6145                	addi	sp,sp,48
    50201b6a:	8082                	ret
